ccopy_reg
_reconstructor
p0
(cneat.genome
DefaultGenome
p1
c__builtin__
object
p2
Ntp3
Rp4
(dp5
S'connections'
p6
(dp7
(I-1
I0
tp8
g0
(cneat.genes
DefaultConnectionGene
p9
g2
Ntp10
Rp11
(dp12
S'enabled'
p13
I01
sS'weight'
p14
F-0.22719491804578634
sS'key'
p15
g8
sbs(I-3
I0
tp16
g0
(g9
g2
Ntp17
Rp18
(dp19
g13
I01
sg14
F-0.47806195953301356
sg15
g16
sbs(I-2
I0
tp20
g0
(g9
g2
Ntp21
Rp22
(dp23
g13
I01
sg14
F0.8728712248298188
sg15
g20
sbssS'nodes'
p24
(dp25
I0
g0
(cneat.genes
DefaultNodeGene
p26
g2
Ntp27
Rp28
(dp29
S'activation'
p30
S'relu'
p31
sS'bias'
p32
F0.14606541381559146
sS'response'
p33
F1.0
sg15
I0
sS'aggregation'
p34
S'sum'
p35
sbssg15
I2
sS'fitness'
p36
I0
sb.